target datalayout = "e-m:e-p270:32:32-p271:32:32-p272:64:64-i64:64-i128:128-f80:128-n8:16:32:64-S128"
target triple = "x86_64-pc-linux-gnu"

%struct.child_handler_disabler_state = type { %struct.__sigset_t }
%struct.__sigset_t = type { [16 x i64] }

@rb_stdout = external global i64, align 8
@rb_stderr = external global i64, align 8
@.str.204 = private unnamed_addr constant [13 x i8] c"getresuid(2)\00", align 1
@.str.205 = private unnamed_addr constant [13 x i8] c"getresgid(2)\00", align 1
@.str.209 = private unnamed_addr constant [11 x i8] c"sigfillset\00", align 1
@.str.210 = private unnamed_addr constant [16 x i8] c"pthread_sigmask\00", align 1

; Function Attrs: nounwind sspstrong uwtable
define internal void @disable_child_handler_fork_parent(ptr noundef %0) #0 {
  %2 = alloca ptr, align 8
  %3 = alloca i32, align 4
  store ptr %0, ptr %2, align 8, !tbaa !148
  call void @llvm.lifetime.start.p0(i64 4, ptr %3) #27
  %4 = load ptr, ptr %2, align 8, !tbaa !148
  %5 = getelementptr inbounds nuw %struct.child_handler_disabler_state, ptr %4, i32 0, i32 0
  %6 = call i32 @pthread_sigmask(i32 noundef 2, ptr noundef %5, ptr noundef null) #27
  store i32 %6, ptr %3, align 4, !tbaa !34
  %7 = load i32, ptr %3, align 4, !tbaa !34
  %8 = icmp ne i32 %7, 0
  br i1 %8, label %9, label %11

9:                                                ; preds = %1
  %10 = load i32, ptr %3, align 4, !tbaa !34
  call void @rb_syserr_fail(i32 noundef %10, ptr noundef @.str.210) #30
  unreachable

11:                                               ; preds = %1
  call void @llvm.lifetime.end.p0(i64 4, ptr %3) #27
  ret void
}

; Function Attrs: inlinehint nounwind sspstrong uwtable
define internal i32 @rb_fork() #1 {
  %1 = call i32 @fork() #27
  ret i32 %1
}

; Function Attrs: nounwind sspstrong uwtable
define internal i32 @has_privilege() #0 {
  %1 = alloca i32, align 4
  %2 = alloca i32, align 4
  %3 = alloca i32, align 4
  %4 = alloca i32, align 4
  %5 = alloca i32, align 4
  %6 = alloca i32, align 4
  %7 = alloca i32, align 4
  %8 = alloca i32, align 4
  %9 = alloca i32, align 4
  %10 = alloca i32, align 4
  %11 = alloca i32, align 4
  %12 = alloca i32, align 4
  call void @llvm.lifetime.start.p0(i64 4, ptr %2) #27
  call void @llvm.lifetime.start.p0(i64 4, ptr %3) #27
  call void @llvm.lifetime.start.p0(i64 4, ptr %4) #27
  call void @llvm.lifetime.start.p0(i64 4, ptr %5) #27
  call void @llvm.lifetime.start.p0(i64 4, ptr %6) #27
  call void @llvm.lifetime.start.p0(i64 4, ptr %7) #27
  %13 = call i32 @getresuid(ptr noundef %2, ptr noundef %3, ptr noundef %7) #27
  store i32 %13, ptr %6, align 4, !tbaa !34
  %14 = load i32, ptr %6, align 4, !tbaa !34
  %15 = icmp eq i32 %14, -1
  br i1 %15, label %16, label %23

16:                                               ; preds = %0
  br label %17

17:                                               ; preds = %16
  call void @llvm.lifetime.start.p0(i64 4, ptr %8) #27
  %18 = call ptr @rb_errno_ptr()
  %19 = load i32, ptr %18, align 4, !tbaa !34
  store i32 %19, ptr %8, align 4, !tbaa !34
  %20 = load i32, ptr %8, align 4, !tbaa !34
  call void @rb_syserr_fail(i32 noundef %20, ptr noundef @.str.204) #30
  unreachable

21:                                               ; No predecessors!
  br label %22

22:                                               ; preds = %21
  br label %23

23:                                               ; preds = %22, %0
  %24 = load i32, ptr %3, align 4, !tbaa !34
  %25 = load i32, ptr %7, align 4, !tbaa !34
  %26 = icmp ne i32 %24, %25
  br i1 %26, label %27, label %28

27:                                               ; preds = %23
  store i32 1, ptr %1, align 4
  store i32 1, ptr %9, align 4
  br label %29

28:                                               ; preds = %23
  store i32 0, ptr %9, align 4
  br label %29

29:                                               ; preds = %28, %27
  call void @llvm.lifetime.end.p0(i64 4, ptr %7) #27
  call void @llvm.lifetime.end.p0(i64 4, ptr %6) #27
  %30 = load i32, ptr %9, align 4
  switch i32 %30, label %64 [
    i32 0, label %31
  ]

31:                                               ; preds = %29
  %32 = load i32, ptr %3, align 4, !tbaa !34
  %33 = icmp eq i32 %32, 0
  br i1 %33, label %38, label %34

34:                                               ; preds = %31
  %35 = load i32, ptr %3, align 4, !tbaa !34
  %36 = load i32, ptr %2, align 4, !tbaa !34
  %37 = icmp ne i32 %35, %36
  br i1 %37, label %38, label %39

38:                                               ; preds = %34, %31
  store i32 1, ptr %1, align 4
  store i32 1, ptr %9, align 4
  br label %64

39:                                               ; preds = %34
  call void @llvm.lifetime.start.p0(i64 4, ptr %10) #27
  call void @llvm.lifetime.start.p0(i64 4, ptr %11) #27
  %40 = call i32 @getresgid(ptr noundef %4, ptr noundef %5, ptr noundef %11) #27
  store i32 %40, ptr %10, align 4, !tbaa !34
  %41 = load i32, ptr %10, align 4, !tbaa !34
  %42 = icmp eq i32 %41, -1
  br i1 %42, label %43, label %50

43:                                               ; preds = %39
  br label %44

44:                                               ; preds = %43
  call void @llvm.lifetime.start.p0(i64 4, ptr %12) #27
  %45 = call ptr @rb_errno_ptr()
  %46 = load i32, ptr %45, align 4, !tbaa !34
  store i32 %46, ptr %12, align 4, !tbaa !34
  %47 = load i32, ptr %12, align 4, !tbaa !34
  call void @rb_syserr_fail(i32 noundef %47, ptr noundef @.str.205) #30
  unreachable

48:                                               ; No predecessors!
  br label %49

49:                                               ; preds = %48
  br label %50

50:                                               ; preds = %49, %39
  %51 = load i32, ptr %5, align 4, !tbaa !34
  %52 = load i32, ptr %11, align 4, !tbaa !34
  %53 = icmp ne i32 %51, %52
  br i1 %53, label %54, label %55

54:                                               ; preds = %50
  store i32 1, ptr %1, align 4
  store i32 1, ptr %9, align 4
  br label %56

55:                                               ; preds = %50
  store i32 0, ptr %9, align 4
  br label %56

56:                                               ; preds = %55, %54
  call void @llvm.lifetime.end.p0(i64 4, ptr %11) #27
  call void @llvm.lifetime.end.p0(i64 4, ptr %10) #27
  %57 = load i32, ptr %9, align 4
  switch i32 %57, label %64 [
    i32 0, label %58
  ]

58:                                               ; preds = %56
  %59 = load i32, ptr %5, align 4, !tbaa !34
  %60 = load i32, ptr %4, align 4, !tbaa !34
  %61 = icmp ne i32 %59, %60
  br i1 %61, label %62, label %63

62:                                               ; preds = %58
  store i32 1, ptr %1, align 4
  store i32 1, ptr %9, align 4
  br label %64

63:                                               ; preds = %58
  store i32 0, ptr %1, align 4
  store i32 1, ptr %9, align 4
  br label %64

64:                                               ; preds = %63, %62, %56, %38, %29
  call void @llvm.lifetime.end.p0(i64 4, ptr %5) #27
  call void @llvm.lifetime.end.p0(i64 4, ptr %4) #27
  call void @llvm.lifetime.end.p0(i64 4, ptr %3) #27
  call void @llvm.lifetime.end.p0(i64 4, ptr %2) #27
  %65 = load i32, ptr %1, align 4
  ret i32 %65
}

; Function Attrs: nounwind sspstrong uwtable
define internal void @disable_child_handler_before_fork(ptr noundef %0) #0 {
  %2 = alloca ptr, align 8
  %3 = alloca i32, align 4
  %4 = alloca %struct.__sigset_t, align 8
  %5 = alloca i32, align 4
  store ptr %0, ptr %2, align 8, !tbaa !148
  call void @llvm.lifetime.start.p0(i64 4, ptr %3) #27
  call void @llvm.lifetime.start.p0(i64 128, ptr %4) #27
  %6 = call i32 @sigfillset(ptr noundef %4) #27
  store i32 %6, ptr %3, align 4, !tbaa !34
  %7 = load i32, ptr %3, align 4, !tbaa !34
  %8 = icmp eq i32 %7, -1
  br i1 %8, label %9, label %16

9:                                                ; preds = %1
  br label %10

10:                                               ; preds = %9
  call void @llvm.lifetime.start.p0(i64 4, ptr %5) #27
  %11 = call ptr @rb_errno_ptr()
  %12 = load i32, ptr %11, align 4, !tbaa !34
  store i32 %12, ptr %5, align 4, !tbaa !34
  %13 = load i32, ptr %5, align 4, !tbaa !34
  call void @rb_syserr_fail(i32 noundef %13, ptr noundef @.str.209) #30
  unreachable

14:                                               ; No predecessors!
  br label %15

15:                                               ; preds = %14
  br label %16

16:                                               ; preds = %15, %1
  %17 = load ptr, ptr %2, align 8, !tbaa !148
  %18 = getelementptr inbounds nuw %struct.child_handler_disabler_state, ptr %17, i32 0, i32 0
  %19 = call i32 @pthread_sigmask(i32 noundef 2, ptr noundef %4, ptr noundef %18) #27
  store i32 %19, ptr %3, align 4, !tbaa !34
  %20 = load i32, ptr %3, align 4, !tbaa !34
  %21 = icmp ne i32 %20, 0
  br i1 %21, label %22, label %24

22:                                               ; preds = %16
  %23 = load i32, ptr %3, align 4, !tbaa !34
  call void @rb_syserr_fail(i32 noundef %23, ptr noundef @.str.210) #30
  unreachable

24:                                               ; preds = %16
  call void @llvm.lifetime.end.p0(i64 128, ptr %4) #27
  call void @llvm.lifetime.end.p0(i64 4, ptr %3) #27
  ret void
}

; Function Attrs: nounwind sspstrong uwtable
define internal i32 @retry_fork_async_signal_safe(ptr noundef %0, ptr noundef %1, ptr noundef %2, ptr noundef %3, ptr noundef %4, i64 noundef %5, ptr noundef %6) #0 {
  %8 = alloca i32, align 4
  %9 = alloca ptr, align 8
  %10 = alloca ptr, align 8
  %11 = alloca ptr, align 8
  %12 = alloca ptr, align 8
  %13 = alloca ptr, align 8
  %14 = alloca i64, align 8
  %15 = alloca ptr, align 8
  %16 = alloca i32, align 4
  %17 = alloca i32, align 4
  %18 = alloca %struct.child_handler_disabler_state, align 8
  %19 = alloca i32, align 4
  %20 = alloca i32, align 4
  %21 = alloca i32, align 4
  store ptr %0, ptr %9, align 8, !tbaa !36
  store ptr %1, ptr %10, align 8, !tbaa !60
  store ptr %2, ptr %11, align 8, !tbaa !62
  store ptr %3, ptr %12, align 8, !tbaa !62
  store ptr %4, ptr %13, align 8, !tbaa !64
  store i64 %5, ptr %14, align 8, !tbaa !35
  store ptr %6, ptr %15, align 8, !tbaa !53
  call void @llvm.lifetime.start.p0(i64 4, ptr %16) #27
  call void @llvm.lifetime.start.p0(i64 4, ptr %17) #27
  store volatile i32 1, ptr %17, align 4, !tbaa !34
  call void @llvm.lifetime.start.p0(i64 128, ptr %18) #27
  call void @llvm.lifetime.start.p0(i64 4, ptr %19) #27
  br label %22

22:                                               ; preds = %77, %7
  br label %23

23:                                               ; preds = %22
  %24 = load i64, ptr @rb_stdout, align 8, !tbaa !35
  %25 = call i64 @rb_io_flush(i64 noundef %24)
  %26 = load i64, ptr @rb_stderr, align 8, !tbaa !35
  %27 = call i64 @rb_io_flush(i64 noundef %26)
  call void @disable_child_handler_before_fork(ptr noundef %18)
  %28 = call i32 @has_privilege()
  %29 = icmp ne i32 %28, 0
  br i1 %29, label %32, label %30

30:                                               ; preds = %23
  %31 = call i32 @vfork() #36
  store i32 %31, ptr %16, align 4, !tbaa !34
  br label %34

32:                                               ; preds = %23
  %33 = call i32 @rb_fork()
  store i32 %33, ptr %16, align 4, !tbaa !34
  br label %34

34:                                               ; preds = %32, %30
  %35 = load i32, ptr %16, align 4, !tbaa !34
  %36 = icmp eq i32 %35, 0
  br i1 %36, label %37, label %63

37:                                               ; preds = %34
  call void @llvm.lifetime.start.p0(i64 4, ptr %20) #27
  %38 = load ptr, ptr %10, align 8, !tbaa !60
  %39 = getelementptr i32, ptr %38, i64 0
  %40 = load i32, ptr %39, align 4, !tbaa !34
  %41 = call i32 @close(i32 noundef %40)
  %42 = load ptr, ptr %13, align 8, !tbaa !64
  %43 = load i64, ptr %14, align 8, !tbaa !35
  %44 = call i32 @disable_child_handler_fork_child(ptr noundef %18, ptr noundef %42, i64 noundef %43)
  store i32 %44, ptr %20, align 4, !tbaa !34
  %45 = load i32, ptr %20, align 4, !tbaa !34
  %46 = icmp eq i32 %45, 0
  br i1 %46, label %47, label %57

47:                                               ; preds = %37
  %48 = load ptr, ptr %11, align 8, !tbaa !62
  %49 = load ptr, ptr %12, align 8, !tbaa !62
  %50 = load ptr, ptr %13, align 8, !tbaa !64
  %51 = load i64, ptr %14, align 8, !tbaa !35
  %52 = call i32 %48(ptr noundef %49, ptr noundef %50, i64 noundef %51)
  store i32 %52, ptr %20, align 4, !tbaa !34
  %53 = load i32, ptr %20, align 4, !tbaa !34
  %54 = icmp ne i32 %53, 0
  br i1 %54, label %56, label %55

55:                                               ; preds = %47
  call void @_exit(i32 noundef 0) #30
  unreachable

56:                                               ; preds = %47
  br label %57

57:                                               ; preds = %56, %37
  %58 = load ptr, ptr %10, align 8, !tbaa !60
  %59 = getelementptr i32, ptr %58, i64 1
  %60 = load i32, ptr %59, align 4, !tbaa !34
  %61 = load ptr, ptr %13, align 8, !tbaa !64
  %62 = load i64, ptr %14, align 8, !tbaa !35
  call void @send_child_error(i32 noundef %60, ptr noundef %61, i64 noundef %62)
  call void @_exit(i32 noundef 127) #30
  unreachable

63:                                               ; preds = %34
  %64 = call ptr @rb_errno_ptr()
  %65 = load i32, ptr %64, align 4, !tbaa !34
  store i32 %65, ptr %19, align 4, !tbaa !34
  call void @disable_child_handler_fork_parent(ptr noundef %18)
  %66 = load i32, ptr %16, align 4, !tbaa !34
  %67 = icmp slt i32 0, %66
  br i1 %67, label %68, label %70

68:                                               ; preds = %63
  %69 = load i32, ptr %16, align 4, !tbaa !34
  store i32 %69, ptr %8, align 4
  store i32 1, ptr %21, align 4
  br label %78

70:                                               ; preds = %63
  %71 = load i32, ptr %19, align 4, !tbaa !34
  %72 = load ptr, ptr %9, align 8, !tbaa !36
  %73 = load ptr, ptr %10, align 8, !tbaa !60
  %74 = call i32 @handle_fork_error(i32 noundef %71, ptr noundef %72, ptr noundef %73, ptr noundef %17)
  %75 = icmp ne i32 %74, 0
  br i1 %75, label %76, label %77

76:                                               ; preds = %70
  store i32 -1, ptr %8, align 4
  store i32 1, ptr %21, align 4
  br label %78

77:                                               ; preds = %70
  br label %22

78:                                               ; preds = %76, %68
  call void @llvm.lifetime.end.p0(i64 4, ptr %19) #27
  call void @llvm.lifetime.end.p0(i64 128, ptr %18) #27
  call void @llvm.lifetime.end.p0(i64 4, ptr %17) #27
  call void @llvm.lifetime.end.p0(i64 4, ptr %16) #27
  %79 = load i32, ptr %8, align 4
  ret i32 %79
}