; Function Attrs: nounwind sspstrong uwtable
define internal fastcc range(i32 -1, -2147483648) i32 @retry_fork_async_signal_safe(ptr noundef captures(address_is_null) %0, ptr noundef nonnull captures(address_is_null) %1, ptr noundef readonly captures(none) %2, ptr noundef %3, ptr noundef %4, i64 noundef %5) unnamed_addr #1 {
  %7 = alloca i32, align 4
  %8 = alloca i32, align 4
  %9 = alloca i32, align 4
  %10 = alloca i32, align 4
  %11 = alloca i32, align 4
  %12 = alloca i32, align 4
  %13 = alloca %struct.__sigset_t, align 8
  %14 = alloca i32, align 4
  %15 = alloca %struct.child_handler_disabler_state, align 8
  call void @llvm.lifetime.start.p0(i64 4, ptr nonnull %14) #27
  store volatile i32 1, ptr %14, align 4, !tbaa !60
  call void @llvm.lifetime.start.p0(i64 128, ptr nonnull %15) #27
  br label %16

16:                                               ; preds = %73, %6
  %17 = load i64, ptr @rb_stdout, align 8, !tbaa !43
  %18 = call i64 @rb_io_flush(i64 noundef %17) #27
  %19 = load i64, ptr @rb_stderr, align 8, !tbaa !43
  %20 = call i64 @rb_io_flush(i64 noundef %19) #27
  call void @llvm.lifetime.start.p0(i64 128, ptr nonnull %13) #27
  %21 = call i32 @sigfillset(ptr noundef nonnull %13) #27
  %22 = icmp eq i32 %21, -1
  br i1 %22, label %23, label %26

23:                                               ; preds = %16
  %24 = call ptr @rb_errno_ptr() #27
  %25 = load i32, ptr %24, align 4, !tbaa !60
  call void @rb_syserr_fail(i32 noundef %25, ptr noundef nonnull @.str.209) #29
  unreachable

26:                                               ; preds = %16
  %27 = call i32 @pthread_sigmask(i32 noundef 2, ptr noundef nonnull %13, ptr noundef nonnull %15) #27
  %.not.i = icmp eq i32 %27, 0
  br i1 %.not.i, label %disable_child_handler_before_fork.exit, label %28

28:                                               ; preds = %26
  call void @rb_syserr_fail(i32 noundef %27, ptr noundef nonnull @.str.210) #29
  unreachable

disable_child_handler_before_fork.exit:           ; preds = %26
  call void @llvm.lifetime.end.p0(i64 128, ptr nonnull %13) #27
  call void @llvm.lifetime.start.p0(i64 4, ptr nonnull %7) #27
  call void @llvm.lifetime.start.p0(i64 4, ptr nonnull %8) #27
  call void @llvm.lifetime.start.p0(i64 4, ptr nonnull %9) #27
  call void @llvm.lifetime.start.p0(i64 4, ptr nonnull %10) #27
  call void @llvm.lifetime.start.p0(i64 4, ptr nonnull %11) #27
  %29 = call i32 @getresuid(ptr noundef nonnull %7, ptr noundef nonnull %8, ptr noundef nonnull %11) #27
  %30 = icmp eq i32 %29, -1
  br i1 %30, label %31, label %34

31:                                               ; preds = %disable_child_handler_before_fork.exit
  %32 = call ptr @rb_errno_ptr() #27
  %33 = load i32, ptr %32, align 4, !tbaa !60
  call void @rb_syserr_fail(i32 noundef %33, ptr noundef nonnull @.str.204) #29
  unreachable

34:                                               ; preds = %disable_child_handler_before_fork.exit
  %35 = load i32, ptr %8, align 4, !tbaa !60
  %36 = load i32, ptr %11, align 4, !tbaa !60
  %.not.i21 = icmp eq i32 %35, %36
  call void @llvm.lifetime.end.p0(i64 4, ptr nonnull %11) #27
  br i1 %.not.i21, label %37, label %has_privilege.exit.thread

37:                                               ; preds = %34
  %38 = icmp ne i32 %35, 0
  %39 = load i32, ptr %7, align 4
  %.not10.i = icmp eq i32 %35, %39
  %or.cond.i = select i1 %38, i1 %.not10.i, i1 false
  br i1 %or.cond.i, label %40, label %has_privilege.exit.thread

40:                                               ; preds = %37
  call void @llvm.lifetime.start.p0(i64 4, ptr nonnull %12) #27
  %41 = call i32 @getresgid(ptr noundef nonnull %9, ptr noundef nonnull %10, ptr noundef nonnull %12) #27
  %42 = icmp eq i32 %41, -1
  br i1 %42, label %43, label %46

43:                                               ; preds = %40
  %44 = call ptr @rb_errno_ptr() #27
  %45 = load i32, ptr %44, align 4, !tbaa !60
  call void @rb_syserr_fail(i32 noundef %45, ptr noundef nonnull @.str.205) #29
  unreachable

46:                                               ; preds = %40
  %47 = load i32, ptr %10, align 4, !tbaa !60
  %48 = load i32, ptr %12, align 4, !tbaa !60
  %.not11.i = icmp eq i32 %47, %48
  call void @llvm.lifetime.end.p0(i64 4, ptr nonnull %12) #27
  br i1 %.not11.i, label %has_privilege.exit, label %has_privilege.exit.thread

has_privilege.exit.thread:                        ; preds = %46, %34, %37
  call void @llvm.lifetime.end.p0(i64 4, ptr nonnull %10) #27
  call void @llvm.lifetime.end.p0(i64 4, ptr nonnull %9) #27
  call void @llvm.lifetime.end.p0(i64 4, ptr nonnull %8) #27
  call void @llvm.lifetime.end.p0(i64 4, ptr nonnull %7) #27
  br label %52

has_privilege.exit:                               ; preds = %46
  %49 = load i32, ptr %9, align 4, !tbaa !60
  %.not12.i.not = icmp eq i32 %47, %49
  call void @llvm.lifetime.end.p0(i64 4, ptr nonnull %10) #27
  call void @llvm.lifetime.end.p0(i64 4, ptr nonnull %9) #27
  call void @llvm.lifetime.end.p0(i64 4, ptr nonnull %8) #27
  call void @llvm.lifetime.end.p0(i64 4, ptr nonnull %7) #27
  br i1 %.not12.i.not, label %50, label %52

50:                                               ; preds = %has_privilege.exit
  %51 = call i32 @vfork() #35
  br label %54

52:                                               ; preds = %has_privilege.exit.thread, %has_privilege.exit
  %53 = call i32 @fork() #27
  br label %54

54:                                               ; preds = %52, %50
  %.018 = phi i32 [ %53, %52 ], [ %51, %50 ]
  %55 = icmp eq i32 %.018, 0
  br i1 %55, label %56, label %67

56:                                               ; preds = %54
  %57 = load i32, ptr %1, align 4, !tbaa !60
  %58 = call i32 @close(i32 noundef %57) #27
  %59 = call fastcc i32 @disable_child_handler_fork_child(ptr noundef %15, ptr noundef %4, i64 noundef %5)
  %60 = icmp eq i32 %59, 0
  br i1 %60, label %61, label %64

61:                                               ; preds = %56
  %62 = call i32 %2(ptr noundef %3, ptr noundef %4, i64 noundef %5) #27
  %.not20 = icmp eq i32 %62, 0
  br i1 %.not20, label %63, label %64

63:                                               ; preds = %61
  call void @_exit(i32 noundef 0) #29
  unreachable

64:                                               ; preds = %61, %56
  %65 = getelementptr i8, ptr %1, i64 4
  %66 = load i32, ptr %65, align 4, !tbaa !60
  call fastcc void @send_child_error(i32 noundef %66, ptr noundef %4, i64 noundef %5)
  call void @_exit(i32 noundef 127) #29
  unreachable

67:                                               ; preds = %54
  %68 = call ptr @rb_errno_ptr() #27
  %69 = load i32, ptr %68, align 4, !tbaa !60
  %70 = call i32 @pthread_sigmask(i32 noundef 2, ptr noundef nonnull %15, ptr noundef null) #27
  %.not.i22 = icmp eq i32 %70, 0
  br i1 %.not.i22, label %disable_child_handler_fork_parent.exit, label %71

71:                                               ; preds = %67
  call void @rb_syserr_fail(i32 noundef %70, ptr noundef nonnull @.str.210) #29
  unreachable

disable_child_handler_fork_parent.exit:           ; preds = %67
  %72 = icmp sgt i32 %.018, 0
  br i1 %72, label %75, label %73

73:                                               ; preds = %disable_child_handler_fork_parent.exit
  %74 = call fastcc i32 @handle_fork_error(i32 noundef %69, ptr noundef %0, ptr noundef nonnull %1, ptr noundef %14)
  %.not19 = icmp eq i32 %74, 0
  br i1 %.not19, label %16, label %75

75:                                               ; preds = %73, %disable_child_handler_fork_parent.exit
  %.0 = phi i32 [ %.018, %disable_child_handler_fork_parent.exit ], [ -1, %73 ]
  call void @llvm.lifetime.end.p0(i64 128, ptr nonnull %15) #27
  call void @llvm.lifetime.end.p0(i64 4, ptr nonnull %14) #27
  ret i32 %.0
}